target datalayout = "e-m:e-p270:32:32-p271:32:32-p272:64:64-i64:64-i128:128-f80:128-n8:16:32:64-S128"
target triple = "x86_64-pc-linux-gnu"

%union.pthread_mutex_t = type { %struct.__pthread_mutex_s }
%struct.__pthread_mutex_s = type { i32, i32, i32, i32, i32, i16, i16, %struct.__pthread_internal_list }
%struct.__pthread_internal_list = type { ptr, ptr }
%struct.hostlist = type { i32, %union.pthread_mutex_t, i32, i32, i32, ptr, ptr }
%struct.hostrange_t = type { ptr, i64, i64, i32, i8 }
%struct.hostlist_iterator = type { i32, ptr, i32, ptr, i32, ptr }

@.str.3 = private unnamed_addr constant [29 x i8] c"%s: pthread_mutex_lock(): %m\00", align 1
@.str.4 = private unnamed_addr constant [31 x i8] c"%s: pthread_mutex_unlock(): %m\00", align 1
@.str.6 = private unnamed_addr constant [22 x i8] c"%s: no hostlist given\00", align 1
@__func__.hostlist_shift_dims = private unnamed_addr constant [20 x i8] c"hostlist_shift_dims\00", align 1
@__func__.hostlist_shift_iterators = private unnamed_addr constant [25 x i8] c"hostlist_shift_iterators\00", align 1

; Function Attrs: nounwind uwtable
define dso_local void @hostlist_iterator_reset(ptr noundef %0) #0 {
  %2 = alloca ptr, align 8
  store ptr %0, ptr %2, align 8
  %3 = load ptr, ptr %2, align 8
  %4 = getelementptr inbounds nuw %struct.hostlist_iterator, ptr %3, i32 0, i32 2
  store i32 0, ptr %4, align 8
  %5 = load ptr, ptr %2, align 8
  %6 = getelementptr inbounds nuw %struct.hostlist_iterator, ptr %5, i32 0, i32 1
  %7 = load ptr, ptr %6, align 8
  %8 = getelementptr inbounds nuw %struct.hostlist, ptr %7, i32 0, i32 5
  %9 = load ptr, ptr %8, align 8
  %10 = getelementptr inbounds ptr, ptr %9, i64 0
  %11 = load ptr, ptr %10, align 8
  %12 = load ptr, ptr %2, align 8
  %13 = getelementptr inbounds nuw %struct.hostlist_iterator, ptr %12, i32 0, i32 3
  store ptr %11, ptr %13, align 8
  %14 = load ptr, ptr %2, align 8
  %15 = getelementptr inbounds nuw %struct.hostlist_iterator, ptr %14, i32 0, i32 4
  store i32 -1, ptr %15, align 8
  ret void
}

; Function Attrs: nounwind uwtable
define internal void @hostlist_shift_iterators(ptr noundef %0, i32 noundef %1, i32 noundef %2, i32 noundef %3) #0 {
  %5 = alloca ptr, align 8
  %6 = alloca i32, align 4
  %7 = alloca i32, align 4
  %8 = alloca i32, align 4
  %9 = alloca ptr, align 8
  %10 = alloca i32, align 4
  store ptr %0, ptr %5, align 8
  store i32 %1, ptr %6, align 4
  store i32 %2, ptr %7, align 4
  store i32 %3, ptr %8, align 4
  call void @llvm.lifetime.start.p0(i64 8, ptr %9) #13
  %11 = load ptr, ptr %5, align 8
  %12 = icmp ne ptr %11, null
  br i1 %12, label %15, label %13

13:                                               ; preds = %4
  %14 = call i32 (ptr, ...) @error(ptr noundef @.str.6, ptr noundef @__func__.hostlist_shift_iterators)
  store i32 1, ptr %10, align 4
  br label %90

15:                                               ; preds = %4
  %16 = load ptr, ptr %5, align 8
  %17 = getelementptr inbounds nuw %struct.hostlist, ptr %16, i32 0, i32 6
  %18 = load ptr, ptr %17, align 8
  store ptr %18, ptr %9, align 8
  br label %19

19:                                               ; preds = %85, %15
  %20 = load ptr, ptr %9, align 8
  %21 = icmp ne ptr %20, null
  br i1 %21, label %22, label %89

22:                                               ; preds = %19
  %23 = load i32, ptr %8, align 4
  %24 = icmp eq i32 %23, 0
  br i1 %24, label %25, label %53

25:                                               ; preds = %22
  %26 = load ptr, ptr %9, align 8
  %27 = getelementptr inbounds nuw %struct.hostlist_iterator, ptr %26, i32 0, i32 2
  %28 = load i32, ptr %27, align 8
  %29 = load i32, ptr %6, align 4
  %30 = icmp eq i32 %28, %29
  br i1 %30, label %31, label %52

31:                                               ; preds = %25
  %32 = load ptr, ptr %9, align 8
  %33 = getelementptr inbounds nuw %struct.hostlist_iterator, ptr %32, i32 0, i32 4
  %34 = load i32, ptr %33, align 8
  %35 = load i32, ptr %7, align 4
  %36 = icmp sge i32 %34, %35
  br i1 %36, label %37, label %52

37:                                               ; preds = %31
  %38 = load ptr, ptr %9, align 8
  %39 = getelementptr inbounds nuw %struct.hostlist_iterator, ptr %38, i32 0, i32 4
  %40 = load i32, ptr %39, align 8
  %41 = icmp sgt i32 %40, -1
  br i1 %41, label %42, label %47

42:                                               ; preds = %37
  %43 = load ptr, ptr %9, align 8
  %44 = getelementptr inbounds nuw %struct.hostlist_iterator, ptr %43, i32 0, i32 4
  %45 = load i32, ptr %44, align 8
  %46 = sub nsw i32 %45, 1
  br label %48

47:                                               ; preds = %37
  br label %48

48:                                               ; preds = %47, %42
  %49 = phi i32 [ %46, %42 ], [ -1, %47 ]
  %50 = load ptr, ptr %9, align 8
  %51 = getelementptr inbounds nuw %struct.hostlist_iterator, ptr %50, i32 0, i32 4
  store i32 %49, ptr %51, align 8
  br label %52

52:                                               ; preds = %48, %31, %25
  br label %84

53:                                               ; preds = %22
  %54 = load ptr, ptr %9, align 8
  %55 = getelementptr inbounds nuw %struct.hostlist_iterator, ptr %54, i32 0, i32 2
  %56 = load i32, ptr %55, align 8
  %57 = load i32, ptr %6, align 4
  %58 = icmp sge i32 %56, %57
  br i1 %58, label %59, label %83

59:                                               ; preds = %53
  %60 = load i32, ptr %8, align 4
  %61 = load ptr, ptr %9, align 8
  %62 = getelementptr inbounds nuw %struct.hostlist_iterator, ptr %61, i32 0, i32 2
  %63 = load i32, ptr %62, align 8
  %64 = sub nsw i32 %63, %60
  store i32 %64, ptr %62, align 8
  %65 = icmp sge i32 %64, 0
  br i1 %65, label %66, label %80

66:                                               ; preds = %59
  %67 = load ptr, ptr %9, align 8
  %68 = getelementptr inbounds nuw %struct.hostlist_iterator, ptr %67, i32 0, i32 1
  %69 = load ptr, ptr %68, align 8
  %70 = getelementptr inbounds nuw %struct.hostlist, ptr %69, i32 0, i32 5
  %71 = load ptr, ptr %70, align 8
  %72 = load ptr, ptr %9, align 8
  %73 = getelementptr inbounds nuw %struct.hostlist_iterator, ptr %72, i32 0, i32 2
  %74 = load i32, ptr %73, align 8
  %75 = sext i32 %74 to i64
  %76 = getelementptr inbounds ptr, ptr %71, i64 %75
  %77 = load ptr, ptr %76, align 8
  %78 = load ptr, ptr %9, align 8
  %79 = getelementptr inbounds nuw %struct.hostlist_iterator, ptr %78, i32 0, i32 3
  store ptr %77, ptr %79, align 8
  br label %82

80:                                               ; preds = %59
  %81 = load ptr, ptr %9, align 8
  call void @hostlist_iterator_reset(ptr noundef %81)
  br label %82

82:                                               ; preds = %80, %66
  br label %83

83:                                               ; preds = %82, %53
  br label %84

84:                                               ; preds = %83, %52
  br label %85

85:                                               ; preds = %84
  %86 = load ptr, ptr %9, align 8
  %87 = getelementptr inbounds nuw %struct.hostlist_iterator, ptr %86, i32 0, i32 5
  %88 = load ptr, ptr %87, align 8
  store ptr %88, ptr %9, align 8
  br label %19, !llvm.loop !39

89:                                               ; preds = %19
  store i32 0, ptr %10, align 4
  br label %90

90:                                               ; preds = %89, %13
  call void @llvm.lifetime.end.p0(i64 8, ptr %9) #13
  %91 = load i32, ptr %10, align 4
  switch i32 %91, label %93 [
    i32 0, label %92
    i32 1, label %92
  ]

92:                                               ; preds = %90, %90
  ret void

93:                                               ; preds = %90
  unreachable
}

; Function Attrs: nounwind uwtable
define internal i32 @hostrange_empty(ptr noundef %0) #0 {
  %2 = alloca ptr, align 8
  store ptr %0, ptr %2, align 8
  %3 = load ptr, ptr %2, align 8
  %4 = getelementptr inbounds nuw %struct.hostrange_t, ptr %3, i32 0, i32 2
  %5 = load i64, ptr %4, align 8
  %6 = load ptr, ptr %2, align 8
  %7 = getelementptr inbounds nuw %struct.hostrange_t, ptr %6, i32 0, i32 1
  %8 = load i64, ptr %7, align 8
  %9 = icmp ult i64 %5, %8
  br i1 %9, label %15, label %10

10:                                               ; preds = %1
  %11 = load ptr, ptr %2, align 8
  %12 = getelementptr inbounds nuw %struct.hostrange_t, ptr %11, i32 0, i32 2
  %13 = load i64, ptr %12, align 8
  %14 = icmp eq i64 %13, -1
  br label %15

15:                                               ; preds = %10, %1
  %16 = phi i1 [ true, %1 ], [ %14, %10 ]
  %17 = zext i1 %16 to i32
  ret i32 %17
}

; Function Attrs: nounwind uwtable
define dso_local ptr @hostlist_shift_dims(ptr noundef %0, i32 noundef %1) #0 {
  %3 = alloca ptr, align 8
  %4 = alloca ptr, align 8
  %5 = alloca i32, align 4
  %6 = alloca ptr, align 8
  %7 = alloca i32, align 4
  %8 = alloca i32, align 4
  %9 = alloca ptr, align 8
  %10 = alloca i32, align 4
  store ptr %0, ptr %4, align 8
  store i32 %1, ptr %5, align 4
  call void @llvm.lifetime.start.p0(i64 8, ptr %6) #13
  store ptr null, ptr %6, align 8
  %11 = load ptr, ptr %4, align 8
  %12 = icmp ne ptr %11, null
  br i1 %12, label %15, label %13

13:                                               ; preds = %2
  %14 = call i32 (ptr, ...) @error(ptr noundef @.str.6, ptr noundef @__func__.hostlist_shift_dims)
  store ptr null, ptr %3, align 8
  store i32 1, ptr %7, align 4
  br label %79

15:                                               ; preds = %2
  %16 = load i32, ptr %5, align 4
  %17 = icmp ne i32 %16, 0
  br i1 %17, label %21, label %18

18:                                               ; preds = %15
  %19 = call zeroext i16 @slurmdb_setup_cluster_dims()
  %20 = zext i16 %19 to i32
  store i32 %20, ptr %5, align 4
  br label %21

21:                                               ; preds = %18, %15
  br label %22

22:                                               ; preds = %21
  br label %23

23:                                               ; preds = %22
  call void @llvm.lifetime.start.p0(i64 4, ptr %8) #13
  %24 = load ptr, ptr %4, align 8
  %25 = getelementptr inbounds nuw %struct.hostlist, ptr %24, i32 0, i32 1
  %26 = call i32 @pthread_mutex_lock(ptr noundef %25) #13
  store i32 %26, ptr %8, align 4
  %27 = load i32, ptr %8, align 4
  %28 = icmp ne i32 %27, 0
  br i1 %28, label %29, label %32

29:                                               ; preds = %23
  %30 = load i32, ptr %8, align 4
  %31 = call ptr @__errno_location() #14
  store i32 %30, ptr %31, align 4
  call void (ptr, ...) @fatal_abort(ptr noundef @.str.3, ptr noundef @__func__.hostlist_shift_dims) #15
  unreachable

32:                                               ; preds = %23
  call void @llvm.lifetime.end.p0(i64 4, ptr %8) #13
  br label %33

33:                                               ; preds = %32
  br label %34

34:                                               ; preds = %33
  br label %35

35:                                               ; preds = %34
  br label %36

36:                                               ; preds = %35
  %37 = load ptr, ptr %4, align 8
  %38 = getelementptr inbounds nuw %struct.hostlist, ptr %37, i32 0, i32 4
  %39 = load i32, ptr %38, align 8
  %40 = icmp sgt i32 %39, 0
  br i1 %40, label %41, label %62

41:                                               ; preds = %36
  call void @llvm.lifetime.start.p0(i64 8, ptr %9) #13
  %42 = load ptr, ptr %4, align 8
  %43 = getelementptr inbounds nuw %struct.hostlist, ptr %42, i32 0, i32 5
  %44 = load ptr, ptr %43, align 8
  %45 = getelementptr inbounds ptr, ptr %44, i64 0
  %46 = load ptr, ptr %45, align 8
  store ptr %46, ptr %9, align 8
  %47 = load ptr, ptr %9, align 8
  %48 = load i32, ptr %5, align 4
  %49 = call ptr @hostrange_shift(ptr noundef %47, i32 noundef %48)
  store ptr %49, ptr %6, align 8
  %50 = load ptr, ptr %4, align 8
  %51 = getelementptr inbounds nuw %struct.hostlist, ptr %50, i32 0, i32 4
  %52 = load i32, ptr %51, align 8
  %53 = add nsw i32 %52, -1
  store i32 %53, ptr %51, align 8
  %54 = load ptr, ptr %9, align 8
  %55 = call i32 @hostrange_empty(ptr noundef %54)
  %56 = icmp ne i32 %55, 0
  br i1 %56, label %57, label %59

57:                                               ; preds = %41
  %58 = load ptr, ptr %4, align 8
  call void @hostlist_delete_range(ptr noundef %58, i32 noundef 0)
  br label %61

59:                                               ; preds = %41
  %60 = load ptr, ptr %4, align 8
  call void @hostlist_shift_iterators(ptr noundef %60, i32 noundef 0, i32 noundef 0, i32 noundef 0)
  br label %61

61:                                               ; preds = %59, %57
  call void @llvm.lifetime.end.p0(i64 8, ptr %9) #13
  br label %62

62:                                               ; preds = %61, %36
  br label %63

63:                                               ; preds = %62
  br label %64

64:                                               ; preds = %63
  call void @llvm.lifetime.start.p0(i64 4, ptr %10) #13
  %65 = load ptr, ptr %4, align 8
  %66 = getelementptr inbounds nuw %struct.hostlist, ptr %65, i32 0, i32 1
  %67 = call i32 @pthread_mutex_unlock(ptr noundef %66) #13
  store i32 %67, ptr %10, align 4
  %68 = load i32, ptr %10, align 4
  %69 = icmp ne i32 %68, 0
  br i1 %69, label %70, label %73

70:                                               ; preds = %64
  %71 = load i32, ptr %10, align 4
  %72 = call ptr @__errno_location() #14
  store i32 %71, ptr %72, align 4
  call void (ptr, ...) @fatal_abort(ptr noundef @.str.4, ptr noundef @__func__.hostlist_shift_dims) #15
  unreachable

73:                                               ; preds = %64
  call void @llvm.lifetime.end.p0(i64 4, ptr %10) #13
  br label %74

74:                                               ; preds = %73
  br label %75

75:                                               ; preds = %74
  br label %76

76:                                               ; preds = %75
  br label %77

77:                                               ; preds = %76
  %78 = load ptr, ptr %6, align 8
  store ptr %78, ptr %3, align 8
  store i32 1, ptr %7, align 4
  br label %79

79:                                               ; preds = %77, %13
  call void @llvm.lifetime.end.p0(i64 8, ptr %6) #13
  %80 = load ptr, ptr %3, align 8
  ret ptr %80
}