; Function Attrs: nounwind uwtable
define dso_local noalias ptr @hostlist_shift_dims(ptr noundef %0, i32 noundef %1) #0 {
  %.not = icmp eq ptr %0, null
  br i1 %.not, label %3, label %5

3:                                                ; preds = %2
  %4 = tail call i32 (ptr, ...) @error(ptr noundef nonnull @.str.6, ptr noundef nonnull @__func__.hostlist_shift_dims) #22
  br label %46

5:                                                ; preds = %2
  %.not23 = icmp eq i32 %1, 0
  br i1 %.not23, label %6, label %9

6:                                                ; preds = %5
  %7 = tail call zeroext i16 @slurmdb_setup_cluster_dims() #22
  %8 = zext i16 %7 to i32
  br label %9

9:                                                ; preds = %6, %5
  %.017 = phi i32 [ %1, %5 ], [ %8, %6 ]
  %10 = getelementptr inbounds nuw i8, ptr %0, i64 8
  %11 = tail call i32 @pthread_mutex_lock(ptr noundef nonnull %10) #22
  %.not24 = icmp eq i32 %11, 0
  br i1 %.not24, label %14, label %12

12:                                               ; preds = %9
  %13 = tail call ptr @__errno_location() #24
  store i32 %11, ptr %13, align 4
  tail call void (ptr, ...) @fatal_abort(ptr noundef nonnull @.str.3, ptr noundef nonnull @__func__.hostlist_shift_dims) #25
  unreachable

14:                                               ; preds = %9
  %15 = getelementptr inbounds nuw i8, ptr %0, i64 56
  %16 = load i32, ptr %15, align 8
  %17 = icmp sgt i32 %16, 0
  br i1 %17, label %18, label %hostlist_shift_iterators.exit

18:                                               ; preds = %14
  %19 = getelementptr inbounds nuw i8, ptr %0, i64 64
  %20 = load ptr, ptr %19, align 8
  %21 = load ptr, ptr %20, align 8
  %22 = tail call fastcc ptr @hostrange_shift(ptr noundef %21, i32 noundef %.017)
  %23 = load i32, ptr %15, align 8
  %24 = add nsw i32 %23, -1
  store i32 %24, ptr %15, align 8
  %25 = getelementptr i8, ptr %21, i64 8
  %.val = load i64, ptr %25, align 8
  %26 = getelementptr i8, ptr %21, i64 16
  %.val27 = load i64, ptr %26, align 8
  %27 = icmp uge i64 %.val27, %.val
  %28 = icmp ne i64 %.val27, -1
  %narrow.i.not = and i1 %27, %28
  br i1 %narrow.i.not, label %30, label %29

29:                                               ; preds = %18
  tail call fastcc void @hostlist_delete_range(ptr noundef nonnull %0, i32 noundef 0)
  br label %hostlist_shift_iterators.exit

30:                                               ; preds = %18
  %31 = getelementptr inbounds nuw i8, ptr %0, i64 72
  %.026.i = load ptr, ptr %31, align 8
  %.not2427.i = icmp eq ptr %.026.i, null
  br i1 %.not2427.i, label %hostlist_shift_iterators.exit, label %.lr.ph.split.us.i

.lr.ph.split.us.i:                                ; preds = %30, %41
  %.028.us.i = phi ptr [ %.0.us.i, %41 ], [ %.026.i, %30 ]
  %32 = getelementptr inbounds nuw i8, ptr %.028.us.i, i64 16
  %33 = load i32, ptr %32, align 8
  %34 = icmp eq i32 %33, 0
  br i1 %34, label %35, label %41

35:                                               ; preds = %.lr.ph.split.us.i
  %36 = getelementptr inbounds nuw i8, ptr %.028.us.i, i64 32
  %37 = load i32, ptr %36, align 8
  %38 = icmp sgt i32 %37, -1
  br i1 %38, label %39, label %41

39:                                               ; preds = %35
  %40 = add nsw i32 %37, -1
  store i32 %40, ptr %36, align 8
  br label %41

41:                                               ; preds = %39, %35, %.lr.ph.split.us.i
  %42 = getelementptr inbounds nuw i8, ptr %.028.us.i, i64 40
  %.0.us.i = load ptr, ptr %42, align 8
  %.not24.us.i = icmp eq ptr %.0.us.i, null
  br i1 %.not24.us.i, label %hostlist_shift_iterators.exit, label %.lr.ph.split.us.i, !llvm.loop !36

hostlist_shift_iterators.exit:                    ; preds = %41, %30, %29, %14
  %.018 = phi ptr [ null, %14 ], [ %22, %29 ], [ %22, %30 ], [ %22, %41 ]
  %43 = tail call i32 @pthread_mutex_unlock(ptr noundef nonnull %10) #22
  %.not26 = icmp eq i32 %43, 0
  br i1 %.not26, label %46, label %44

44:                                               ; preds = %hostlist_shift_iterators.exit
  %45 = tail call ptr @__errno_location() #24
  store i32 %43, ptr %45, align 4
  tail call void (ptr, ...) @fatal_abort(ptr noundef nonnull @.str.4, ptr noundef nonnull @__func__.hostlist_shift_dims) #25
  unreachable

46:                                               ; preds = %hostlist_shift_iterators.exit, %3
  %.0 = phi ptr [ null, %3 ], [ %.018, %hostlist_shift_iterators.exit ]
  ret ptr %.0
}